target datalayout = "e-m:e-p270:32:32-p271:32:32-p272:64:64-i64:64-i128:128-f80:128-n8:16:32:64-S128"
target triple = "x86_64-pc-linux-gnu"

%struct.yyjson_alc = type { ptr, ptr, ptr, ptr }
%struct.yyjson_val_pool = type { ptr, ptr, i64, i64, ptr }
%struct.yyjson_val_chunk = type { ptr, i64 }
%struct.yyjson_mut_val = type { i64, %union.yyjson_val_uni, ptr }
%union.yyjson_val_uni = type { i64 }

; Function Attrs: nounwind uwtable
define dso_local zeroext i1 @unsafe_yyjson_val_pool_grow(ptr noundef %0, ptr noundef %1, i64 noundef %2) #0 {
  %4 = alloca i1, align 1
  %5 = alloca ptr, align 8
  %6 = alloca ptr, align 8
  %7 = alloca i64, align 8
  %8 = alloca ptr, align 8
  %9 = alloca i64, align 8
  %10 = alloca i64, align 8
  %11 = alloca i32, align 4
  store ptr %0, ptr %5, align 8, !tbaa !57
  store ptr %1, ptr %6, align 8, !tbaa !4
  store i64 %2, ptr %7, align 8, !tbaa !10
  call void @llvm.lifetime.start.p0(i64 8, ptr %8) #13
  call void @llvm.lifetime.start.p0(i64 8, ptr %9) #13
  call void @llvm.lifetime.start.p0(i64 8, ptr %10) #13
  store i64 768614336404564649, ptr %10, align 8, !tbaa !10
  %12 = load i64, ptr %7, align 8, !tbaa !10
  %13 = load i64, ptr %10, align 8, !tbaa !10
  %14 = icmp ugt i64 %12, %13
  %15 = xor i1 %14, true
  %16 = xor i1 %15, true
  %17 = zext i1 %16 to i32
  %18 = sext i32 %17 to i64
  %19 = call i64 @llvm.expect.i64(i64 %18, i64 0)
  %20 = icmp ne i64 %19, 0
  br i1 %20, label %21, label %22

21:                                               ; preds = %3
  store i1 false, ptr %4, align 1
  store i32 1, ptr %11, align 4
  br label %110

22:                                               ; preds = %3
  %23 = load i64, ptr %7, align 8, !tbaa !10
  %24 = add i64 %23, 1
  %25 = mul i64 %24, 24
  store i64 %25, ptr %9, align 8, !tbaa !10
  %26 = load ptr, ptr %5, align 8, !tbaa !57
  %27 = getelementptr inbounds nuw %struct.yyjson_val_pool, ptr %26, i32 0, i32 2
  %28 = load i64, ptr %27, align 8, !tbaa !59
  %29 = load i64, ptr %9, align 8, !tbaa !10
  %30 = icmp ugt i64 %28, %29
  br i1 %30, label %31, label %35

31:                                               ; preds = %22
  %32 = load ptr, ptr %5, align 8, !tbaa !57
  %33 = getelementptr inbounds nuw %struct.yyjson_val_pool, ptr %32, i32 0, i32 2
  %34 = load i64, ptr %33, align 8, !tbaa !59
  br label %37

35:                                               ; preds = %22
  %36 = load i64, ptr %9, align 8, !tbaa !10
  br label %37

37:                                               ; preds = %35, %31
  %38 = phi i64 [ %34, %31 ], [ %36, %35 ]
  store i64 %38, ptr %9, align 8, !tbaa !10
  %39 = load ptr, ptr %6, align 8, !tbaa !4
  %40 = getelementptr inbounds nuw %struct.yyjson_alc, ptr %39, i32 0, i32 0
  %41 = load ptr, ptr %40, align 8, !tbaa !23
  %42 = load ptr, ptr %6, align 8, !tbaa !4
  %43 = getelementptr inbounds nuw %struct.yyjson_alc, ptr %42, i32 0, i32 3
  %44 = load ptr, ptr %43, align 8, !tbaa !27
  %45 = load i64, ptr %9, align 8, !tbaa !10
  %46 = call ptr %41(ptr noundef %44, i64 noundef %45)
  store ptr %46, ptr %8, align 8, !tbaa !63
  %47 = load ptr, ptr %8, align 8, !tbaa !63
  %48 = icmp ne ptr %47, null
  %49 = xor i1 %48, true
  %50 = xor i1 %49, true
  %51 = xor i1 %50, true
  %52 = zext i1 %51 to i32
  %53 = sext i32 %52 to i64
  %54 = call i64 @llvm.expect.i64(i64 %53, i64 0)
  %55 = icmp ne i64 %54, 0
  br i1 %55, label %56, label %57

56:                                               ; preds = %37
  store i1 false, ptr %4, align 1
  store i32 1, ptr %11, align 4
  br label %110

57:                                               ; preds = %37
  %58 = load ptr, ptr %5, align 8, !tbaa !57
  %59 = getelementptr inbounds nuw %struct.yyjson_val_pool, ptr %58, i32 0, i32 4
  %60 = load ptr, ptr %59, align 8, !tbaa !64
  %61 = load ptr, ptr %8, align 8, !tbaa !63
  %62 = getelementptr inbounds nuw %struct.yyjson_val_chunk, ptr %61, i32 0, i32 0
  store ptr %60, ptr %62, align 8, !tbaa !65
  %63 = load i64, ptr %9, align 8, !tbaa !10
  %64 = load ptr, ptr %8, align 8, !tbaa !63
  %65 = getelementptr inbounds nuw %struct.yyjson_val_chunk, ptr %64, i32 0, i32 1
  store i64 %63, ptr %65, align 8, !tbaa !67
  %66 = load ptr, ptr %8, align 8, !tbaa !63
  %67 = load ptr, ptr %5, align 8, !tbaa !57
  %68 = getelementptr inbounds nuw %struct.yyjson_val_pool, ptr %67, i32 0, i32 4
  store ptr %66, ptr %68, align 8, !tbaa !64
  %69 = load ptr, ptr %8, align 8, !tbaa !63
  %70 = getelementptr inbounds %struct.yyjson_mut_val, ptr %69, i64 1
  %71 = load ptr, ptr %5, align 8, !tbaa !57
  %72 = getelementptr inbounds nuw %struct.yyjson_val_pool, ptr %71, i32 0, i32 0
  store ptr %70, ptr %72, align 8, !tbaa !68
  %73 = load ptr, ptr %8, align 8, !tbaa !63
  %74 = load i64, ptr %9, align 8, !tbaa !10
  %75 = getelementptr inbounds nuw i8, ptr %73, i64 %74
  %76 = load ptr, ptr %5, align 8, !tbaa !57
  %77 = getelementptr inbounds nuw %struct.yyjson_val_pool, ptr %76, i32 0, i32 1
  store ptr %75, ptr %77, align 8, !tbaa !69
  %78 = load ptr, ptr %5, align 8, !tbaa !57
  %79 = getelementptr inbounds nuw %struct.yyjson_val_pool, ptr %78, i32 0, i32 2
  %80 = load i64, ptr %79, align 8, !tbaa !59
  %81 = mul i64 %80, 2
  %82 = load ptr, ptr %5, align 8, !tbaa !57
  %83 = getelementptr inbounds nuw %struct.yyjson_val_pool, ptr %82, i32 0, i32 3
  %84 = load i64, ptr %83, align 8, !tbaa !70
  %85 = icmp ult i64 %81, %84
  br i1 %85, label %86, label %91

86:                                               ; preds = %57
  %87 = load ptr, ptr %5, align 8, !tbaa !57
  %88 = getelementptr inbounds nuw %struct.yyjson_val_pool, ptr %87, i32 0, i32 2
  %89 = load i64, ptr %88, align 8, !tbaa !59
  %90 = mul i64 %89, 2
  br label %95

91:                                               ; preds = %57
  %92 = load ptr, ptr %5, align 8, !tbaa !57
  %93 = getelementptr inbounds nuw %struct.yyjson_val_pool, ptr %92, i32 0, i32 3
  %94 = load i64, ptr %93, align 8, !tbaa !70
  br label %95

95:                                               ; preds = %91, %86
  %96 = phi i64 [ %90, %86 ], [ %94, %91 ]
  store i64 %96, ptr %9, align 8, !tbaa !10
  %97 = load i64, ptr %9, align 8, !tbaa !10
  %98 = load ptr, ptr %5, align 8, !tbaa !57
  %99 = getelementptr inbounds nuw %struct.yyjson_val_pool, ptr %98, i32 0, i32 2
  %100 = load i64, ptr %99, align 8, !tbaa !59
  %101 = icmp ult i64 %97, %100
  br i1 %101, label %102, label %106

102:                                              ; preds = %95
  %103 = load ptr, ptr %5, align 8, !tbaa !57
  %104 = getelementptr inbounds nuw %struct.yyjson_val_pool, ptr %103, i32 0, i32 3
  %105 = load i64, ptr %104, align 8, !tbaa !70
  store i64 %105, ptr %9, align 8, !tbaa !10
  br label %106

106:                                              ; preds = %102, %95
  %107 = load i64, ptr %9, align 8, !tbaa !10
  %108 = load ptr, ptr %5, align 8, !tbaa !57
  %109 = getelementptr inbounds nuw %struct.yyjson_val_pool, ptr %108, i32 0, i32 2
  store i64 %107, ptr %109, align 8, !tbaa !59
  store i1 true, ptr %4, align 1
  store i32 1, ptr %11, align 4
  br label %110

110:                                              ; preds = %106, %56, %21
  call void @llvm.lifetime.end.p0(i64 8, ptr %10) #13
  call void @llvm.lifetime.end.p0(i64 8, ptr %9) #13
  call void @llvm.lifetime.end.p0(i64 8, ptr %8) #13
  %111 = load i1, ptr %4, align 1
  ret i1 %111
}